target datalayout = "e-m:e-p270:32:32-p271:32:32-p272:64:64-i64:64-i128:128-f80:128-n8:16:32:64-S128"
target triple = "x86_64-pc-linux-gnu"

%"struct.boost::urls::detail::url_impl" = type <{ ptr, [8 x i64], [7 x i64], i64, i64, [16 x i8], i16, [2 x i8], i32, i16, i8, [5 x i8] }>

; Function Attrs: mustprogress nounwind uwtable
define void @_ZN5boost4urls6detail8url_impl8collapseEiim(ptr noundef nonnull align 8 dereferenceable(171) %0, i32 noundef %1, i32 noundef %2, i64 noundef %3) #1 align 2 {
  %5 = alloca ptr, align 8
  %6 = alloca i32, align 4
  %7 = alloca i32, align 4
  %8 = alloca i64, align 8
  %9 = alloca i32, align 4
  store ptr %0, ptr %5, align 8, !tbaa !3
  store i32 %1, ptr %6, align 4, !tbaa !16
  store i32 %2, ptr %7, align 4, !tbaa !16
  store i64 %3, ptr %8, align 8, !tbaa !8
  %10 = load ptr, ptr %5, align 8
  call void @llvm.lifetime.start.p0(i64 4, ptr %9) #5
  %11 = load i32, ptr %6, align 4, !tbaa !16
  %12 = add nsw i32 %11, 1
  store i32 %12, ptr %9, align 4, !tbaa !16
  br label %13

13:                                               ; preds = %24, %4
  %14 = load i32, ptr %9, align 4, !tbaa !16
  %15 = load i32, ptr %7, align 4, !tbaa !16
  %16 = icmp slt i32 %14, %15
  br i1 %16, label %18, label %17

17:                                               ; preds = %13
  call void @llvm.lifetime.end.p0(i64 4, ptr %9) #5
  br label %27

18:                                               ; preds = %13
  %19 = load i64, ptr %8, align 8, !tbaa !8
  %20 = getelementptr inbounds nuw %"struct.boost::urls::detail::url_impl", ptr %10, i32 0, i32 1
  %21 = load i32, ptr %9, align 4, !tbaa !16
  %22 = sext i32 %21 to i64
  %23 = getelementptr inbounds [8 x i64], ptr %20, i64 0, i64 %22
  store i64 %19, ptr %23, align 8, !tbaa !8
  br label %24

24:                                               ; preds = %18
  %25 = load i32, ptr %9, align 4, !tbaa !16
  %26 = add nsw i32 %25, 1
  store i32 %26, ptr %9, align 4, !tbaa !16
  br label %13, !llvm.loop !41

27:                                               ; preds = %17
  ret void
}