; Function Attrs: mustprogress nofree norecurse nosync nounwind memory(argmem: write) uwtable
define void @_ZN5boost4urls6detail8url_impl8collapseEiim(ptr nocapture noundef nonnull writeonly align 8 dereferenceable(171) %0, i32 noundef %1, i32 noundef %2, i64 noundef %3) local_unnamed_addr #7 align 2 {
  %.06 = add nsw i32 %1, 1
  %5 = icmp slt i32 %.06, %2
  br i1 %5, label %.lr.ph, label %._crit_edge

.lr.ph:                                           ; preds = %4
  %6 = getelementptr inbounds nuw i8, ptr %0, i64 8
  %7 = sext i32 %1 to i64
  %8 = add nsw i64 %7, 1
  br label %9

._crit_edge:                                      ; preds = %9, %4
  ret void

9:                                                ; preds = %.lr.ph, %9
  %indvars.iv = phi i64 [ %8, %.lr.ph ], [ %indvars.iv.next, %9 ]
  %10 = getelementptr inbounds [8 x i64], ptr %6, i64 0, i64 %indvars.iv
  store i64 %3, ptr %10, align 8, !tbaa !13
  %indvars.iv.next = add nsw i64 %indvars.iv, 1
  %lftr.wideiv = trunc i64 %indvars.iv.next to i32
  %exitcond.not = icmp eq i32 %2, %lftr.wideiv
  br i1 %exitcond.not, label %._crit_edge, label %9, !llvm.loop !42
}